(dp1
S'files'
p2
(dp3
S'news_views'
p4
(dp5
S'index'
p6
(dp7
S'html_filename'
p8
S'news_views.html'
p9
sS'name'
p10
S'news\\views'
p11
sS'nums'
p12
ccopy_reg
_reconstructor
p13
(ccoverage.results
Numbers
p14
c__builtin__
object
p15
NtRp16
(dp17
S'n_files'
p18
I1
sS'n_branches'
p19
I0
sS'n_statements'
p20
I6
sS'n_excluded'
p21
I0
sS'n_partial_branches'
p22
I0
sS'n_missing'
p23
I3
sS'n_missing_branches'
p24
I0
sbssS'hash'
p25
S'\xf5\x01/u\xa8\x81\xc5\xff\xf5\xa0x\x8e\xd2u\x8d\x12'
p26
ssS'news_tests___init__'
p27
(dp28
S'index'
p29
(dp30
S'html_filename'
p31
S'news_tests___init__.html'
p32
sS'name'
p33
S'news\\tests\\__init__'
p34
sS'nums'
p35
g13
(g14
g15
NtRp36
(dp37
g18
I1
sg19
I0
sg20
I0
sg21
I0
sg22
I0
sg23
I0
sg24
I0
sbssS'hash'
p38
S'\xb0\xc8pN\xaf>\xa0\xbaz\x144\xe0A9\xb8?'
p39
ssS'affiliates___init__'
p40
(dp41
S'index'
p42
(dp43
S'html_filename'
p44
S'affiliates___init__.html'
p45
sS'name'
p46
S'affiliates\\__init__'
p47
sS'nums'
p48
g13
(g14
g15
NtRp49
(dp50
g18
I1
sg19
I0
sg20
I0
sg21
I0
sg22
I0
sg23
I0
sg24
I0
sbssS'hash'
p51
S'\xb0\xc8pN\xaf>\xa0\xbaz\x144\xe0A9\xb8?'
p52
ssS'manage'
p53
(dp54
g29
(dp55
g31
S'manage.html'
p56
sg33
g53
sg35
g13
(g14
g15
NtRp57
(dp58
g18
I1
sg19
I0
sg20
I6
sg21
I0
sg22
I0
sg23
I0
sg24
I0
sbssg38
S'\xec\xf4\xa0&Q\xd1\x8fg{\x8d|\x13\xdaS3\x18'
p59
ssS'affiliates_models'
p60
(dp61
g42
(dp62
S'html_filename'
p63
S'affiliates_models.html'
p64
sS'name'
p65
S'affiliates\\models'
p66
sS'nums'
p67
g13
(g14
g15
NtRp68
(dp69
g18
I1
sg19
I0
sg20
I11
sg21
I0
sg22
I0
sg23
I0
sg24
I0
sbssg51
S'\xd4r\xcc\x9b\x9b(\x9f\xf9J\x0e\xfb\xea!\x1a\xe62'
p70
ssS'events_tests_tests_events_views'
p71
(dp72
S'index'
p73
(dp74
S'html_filename'
p75
S'events_tests_tests_events_views.html'
p76
sS'name'
p77
S'events\\tests\\tests_events_views'
p78
sS'nums'
p79
g13
(g14
g15
NtRp80
(dp81
g18
I1
sg19
I0
sg20
I14
sg21
I0
sg22
I0
sg23
I0
sg24
I0
sbssS'hash'
p82
S'\x83\xf1,\x15+=\x11\xa2/\x86r4"\x08\xdb\x9c'
p83
ssS'people_models'
p84
(dp85
g29
(dp86
g63
S'people_models.html'
p87
sg65
S'people\\models'
p88
sg67
g13
(g14
g15
NtRp89
(dp90
g18
I1
sg19
I0
sg20
I27
sg21
I0
sg22
I0
sg23
I0
sg24
I0
sbssg38
S'\xf9\xde\x9a}\x9a%>\x99\x9f\xac\xf7\x11\x14w\x96\xd6'
p91
ssS'images_tests_test_models'
p92
(dp93
g29
(dp94
g31
S'images_tests_test_models.html'
p95
sg33
S'images\\tests\\test_models'
p96
sg35
g13
(g14
g15
NtRp97
(dp98
g18
I1
sg19
I0
sg20
I11
sg21
I0
sg22
I0
sg23
I0
sg24
I0
sbssg38
S'\x94.\x1c\x90XV\xf0N\xbf\xd5x\xac\xff\xb1\x8e\xf4'
p99
ssS'images_models'
p100
(dp101
g29
(dp102
S'html_filename'
p103
S'images_models.html'
p104
sS'name'
p105
S'images\\models'
p106
sS'nums'
p107
g13
(g14
g15
NtRp108
(dp109
g18
I1
sg19
I0
sg20
I8
sg21
I0
sg22
I0
sg23
I0
sg24
I0
sbssg38
S'\x05\x8de9Q\x8f\xac_\x0e\xf5\xc7\xa6~/\xb1\x85'
p110
ssS'announcements_views'
p111
(dp112
g6
(dp113
g103
S'announcements_views.html'
p114
sg105
S'announcements\\views'
p115
sg107
g13
(g14
g15
NtRp116
(dp117
g18
I1
sg19
I0
sg20
I6
sg21
I0
sg22
I0
sg23
I0
sg24
I0
sbssg25
S'\xe3\x1f\x07\x97w 0I\x0c\xa3tzQ\xc2\xd2\x89'
p118
ssS'people_admin'
p119
(dp120
g6
(dp121
g8
S'people_admin.html'
p122
sg10
S'people\\admin'
p123
sg12
g13
(g14
g15
NtRp124
(dp125
g18
I1
sg19
I0
sg20
I17
sg21
I0
sg22
I0
sg23
I0
sg24
I0
sbssg25
S'2\xd6\xf2=:/6+\xe9D\xc1\xaa\x86\xe7Ue'
p126
ssS'DCS_Website___init__'
p127
(dp128
g29
(dp129
g31
S'DCS_Website___init__.html'
p130
sg33
S'DCS_Website\\__init__'
p131
sg35
g13
(g14
g15
NtRp132
(dp133
g18
I1
sg19
I0
sg20
I0
sg21
I0
sg22
I0
sg23
I0
sg24
I0
sbssg38
S'\xb0\xc8pN\xaf>\xa0\xbaz\x144\xe0A9\xb8?'
p134
ssS'announcements_urls'
p135
(dp136
g6
(dp137
g8
S'announcements_urls.html'
p138
sg10
S'announcements\\urls'
p139
sg12
g13
(g14
g15
NtRp140
(dp141
g18
I1
sg19
I0
sg20
I3
sg21
I0
sg22
I0
sg23
I0
sg24
I0
sbssg25
S'\x1fD{\xad\x8a\x85\xff\x9e\xe0\xfa\xd9\xa6@\xbba\xf5'
p142
ssS'images_tests___init__'
p143
(dp144
g29
(dp145
g31
S'images_tests___init__.html'
p146
sg33
S'images\\tests\\__init__'
p147
sg35
g13
(g14
g15
NtRp148
(dp149
g18
I1
sg19
I0
sg20
I0
sg21
I0
sg22
I0
sg23
I0
sg24
I0
sbssg38
S'\xb0\xc8pN\xaf>\xa0\xbaz\x144\xe0A9\xb8?'
p150
ssS'announcements_tests_tests_announcements_views'
p151
(dp152
S'index'
p153
(dp154
g103
S'announcements_tests_tests_announcements_views.html'
p155
sg105
S'announcements\\tests\\tests_announcements_views'
p156
sg107
g13
(g14
g15
NtRp157
(dp158
g18
I1
sg19
I0
sg20
I14
sg21
I0
sg22
I0
sg23
I0
sg24
I0
sbssS'hash'
p159
S'F\xc3\xa7\xb2U\xd1\xc8\xe2\xad\x8bv\xe8\x83\xdd\xbdi'
p160
ssS'DCS_Website_tests'
p161
(dp162
g153
(dp163
S'html_filename'
p164
S'DCS_Website_tests.html'
p165
sS'name'
p166
S'DCS_Website\\tests'
p167
sS'nums'
p168
g13
(g14
g15
NtRp169
(dp170
g18
I1
sg19
I0
sg20
I33
sg21
I0
sg22
I0
sg23
I0
sg24
I0
sbssg159
S"\x90'\xabJ\xa6f\xca,\xed\xf4m) Y\xd3\x87"
p171
ssS'news_tests_test_models'
p172
(dp173
g29
(dp174
g31
S'news_tests_test_models.html'
p175
sg33
S'news\\tests\\test_models'
p176
sg35
g13
(g14
g15
NtRp177
(dp178
g18
I1
sg19
I0
sg20
I11
sg21
I0
sg22
I0
sg23
I0
sg24
I0
sbssg38
S'\xf9\xc6\xf2Yt\x86Z\x8f\x9d\x99uG\x88\x9fW\x02'
p179
ssS'events___init__'
p180
(dp181
g29
(dp182
g31
S'events___init__.html'
p183
sg33
S'events\\__init__'
p184
sg35
g13
(g14
g15
NtRp185
(dp186
g18
I1
sg19
I0
sg20
I0
sg21
I0
sg22
I0
sg23
I0
sg24
I0
sbssg38
S'\xb0\xc8pN\xaf>\xa0\xbaz\x144\xe0A9\xb8?'
p187
ssS'announcements_tests_tests_announcements_models'
p188
(dp189
g29
(dp190
g31
S'announcements_tests_tests_announcements_models.html'
p191
sg33
S'announcements\\tests\\tests_announcements_models'
p192
sg35
g13
(g14
g15
NtRp193
(dp194
g18
I1
sg19
I0
sg20
I11
sg21
I0
sg22
I0
sg23
I0
sg24
I0
sbssg38
S"'A\xc3\xe3\xef \x98/\x0c\xd3\xefJ3A^\xc5"
p195
ssS'DCS_Website_urls'
p196
(dp197
g6
(dp198
S'html_filename'
p199
S'DCS_Website_urls.html'
p200
sS'name'
p201
S'DCS_Website\\urls'
p202
sS'nums'
p203
g13
(g14
g15
NtRp204
(dp205
g18
I1
sg19
I0
sg20
I8
sg21
I0
sg22
I0
sg23
I0
sg24
I0
sbssg25
S'\xad\x19\x05\xd1\xbcyv\x90WG\x98=\xa9r>\xf5'
p206
ssS'announcements_models'
p207
(dp208
g29
(dp209
g103
S'announcements_models.html'
p210
sg105
S'announcements\\models'
p211
sg107
g13
(g14
g15
NtRp212
(dp213
g18
I1
sg19
I0
sg20
I7
sg21
I0
sg22
I0
sg23
I0
sg24
I0
sbssg38
S'\xe2\x02\n\xe2\x9ek\n&\x1a\xc2\xae\xc1\xaa-\x89\x90'
p214
ssS'announcements_admin'
p215
(dp216
g6
(dp217
g8
S'announcements_admin.html'
p218
sg10
S'announcements\\admin'
p219
sg12
g13
(g14
g15
NtRp220
(dp221
g18
I1
sg19
I0
sg20
I7
sg21
I0
sg22
I0
sg23
I0
sg24
I0
sbssg25
S"3'7\x93F\xcf\xd2\x01\xd6@L\n\x8b\xa1wG"
p222
ssS'people___init__'
p223
(dp224
g29
(dp225
g31
S'people___init__.html'
p226
sg33
S'people\\__init__'
p227
sg35
g13
(g14
g15
NtRp228
(dp229
g18
I1
sg19
I0
sg20
I0
sg21
I0
sg22
I0
sg23
I0
sg24
I0
sbssg38
S'\xb0\xc8pN\xaf>\xa0\xbaz\x144\xe0A9\xb8?'
p230
ssS'research_urls'
p231
(dp232
S'index'
p233
(dp234
g199
S'research_urls.html'
p235
sg201
S'research\\urls'
p236
sg203
g13
(g14
g15
NtRp237
(dp238
g18
I1
sg19
I0
sg20
I3
sg21
I0
sg22
I0
sg23
I0
sg24
I0
sbssS'hash'
p239
S"\xdc'\xfb\x95>up\xaf\xb6Whc\x07\xff\x18\x93"
p240
ssS'research_views'
p241
(dp242
g233
(dp243
g199
S'research_views.html'
p244
sg201
S'research\\views'
p245
sg203
g13
(g14
g15
NtRp246
(dp247
g18
I1
sg19
I0
sg20
I6
sg21
I0
sg22
I0
sg23
I0
sg24
I0
sbssg239
S'\x148q\n\xc8\x02\xb9\x11L_:\xb8\x14\xb2\xcf\x98'
p248
ssS'news___init__'
p249
(dp250
g29
(dp251
g31
S'news___init__.html'
p252
sg33
S'news\\__init__'
p253
sg35
g13
(g14
g15
NtRp254
(dp255
g18
I1
sg19
I0
sg20
I0
sg21
I0
sg22
I0
sg23
I0
sg24
I0
sbssg38
S'\xb0\xc8pN\xaf>\xa0\xbaz\x144\xe0A9\xb8?'
p256
ssS'research_models'
p257
(dp258
g233
(dp259
g63
S'research_models.html'
p260
sg65
S'research\\models'
p261
sg67
g13
(g14
g15
NtRp262
(dp263
g18
I1
sg19
I0
sg20
I23
sg21
I0
sg22
I0
sg23
I2
sg24
I0
sbssg239
S"\xf8\x9b+\xb5)\xcd'w\x16J\xd7\xb2\x88\xf7\x9a~"
p264
ssS'affiliates_admin'
p265
(dp266
g42
(dp267
g63
S'affiliates_admin.html'
p268
sg65
S'affiliates\\admin'
p269
sg67
g13
(g14
g15
NtRp270
(dp271
g18
I1
sg19
I0
sg20
I7
sg21
I0
sg22
I0
sg23
I0
sg24
I0
sbssg51
S'T6\x1d\xae\r\x8c_\xcb"\xb1M\x8a/\n\xf2@'
p272
ssS'events_models'
p273
(dp274
g29
(dp275
g31
S'events_models.html'
p276
sg33
S'events\\models'
p277
sg35
g13
(g14
g15
NtRp278
(dp279
g18
I1
sg19
I0
sg20
I6
sg21
I0
sg22
I0
sg23
I0
sg24
I0
sbssg38
S'\x9f\x93\xf0F\x887\xb1\x0b\xa1%4\x19\xa5\xdb\x93F'
p280
ssS'images___init__'
p281
(dp282
g29
(dp283
g31
S'images___init__.html'
p284
sg33
S'images\\__init__'
p285
sg35
g13
(g14
g15
NtRp286
(dp287
g18
I1
sg19
I0
sg20
I0
sg21
I0
sg22
I0
sg23
I0
sg24
I0
sbssg38
S'\xb0\xc8pN\xaf>\xa0\xbaz\x144\xe0A9\xb8?'
p288
ssS'research_admin'
p289
(dp290
g233
(dp291
g199
S'research_admin.html'
p292
sg201
S'research\\admin'
p293
sg203
g13
(g14
g15
NtRp294
(dp295
g18
I1
sg19
I0
sg20
I17
sg21
I0
sg22
I0
sg23
I0
sg24
I0
sbssg239
S'\xde\xf1\xbe\xdb|*F\xb3\xfc@\xf4a\x919A\xf3'
p296
ssS'news_urls'
p297
(dp298
g6
(dp299
g8
S'news_urls.html'
p300
sg10
S'news\\urls'
p301
sg12
g13
(g14
g15
NtRp302
(dp303
g18
I1
sg19
I0
sg20
I3
sg21
I0
sg22
I0
sg23
I0
sg24
I0
sbssg25
S'/\x9bR\xf3O@\x03sG\xa9\xd6\xd3\x13\\`\x8d'
p304
ssS'news_admin'
p305
(dp306
g6
(dp307
g8
S'news_admin.html'
p308
sg10
S'news\\admin'
p309
sg12
g13
(g14
g15
NtRp310
(dp311
g18
I1
sg19
I0
sg20
I7
sg21
I0
sg22
I0
sg23
I0
sg24
I0
sbssg25
S'\xf6\x00cp\x87\xf1\x11\xa6=\xcb\x81\x88Z>D/'
p312
ssS'announcements_tests___init__'
p313
(dp314
g29
(dp315
g31
S'announcements_tests___init__.html'
p316
sg33
S'announcements\\tests\\__init__'
p317
sg35
g13
(g14
g15
NtRp318
(dp319
g18
I1
sg19
I0
sg20
I0
sg21
I0
sg22
I0
sg23
I0
sg24
I0
sbssg38
S'\xb0\xc8pN\xaf>\xa0\xbaz\x144\xe0A9\xb8?'
p320
ssS'events_views'
p321
(dp322
g6
(dp323
g8
S'events_views.html'
p324
sg10
S'events\\views'
p325
sg12
g13
(g14
g15
NtRp326
(dp327
g18
I1
sg19
I0
sg20
I6
sg21
I0
sg22
I0
sg23
I0
sg24
I0
sbssg25
S'\xe3&\xeb\xc5\xcbY\xa1 \xe9\xd6h\x8ah\x96\xdb\xef'
p328
ssS'events_tests___init__'
p329
(dp330
g29
(dp331
g31
S'events_tests___init__.html'
p332
sg33
S'events\\tests\\__init__'
p333
sg35
g13
(g14
g15
NtRp334
(dp335
g18
I1
sg19
I0
sg20
I0
sg21
I0
sg22
I0
sg23
I0
sg24
I0
sbssg38
S'\xb0\xc8pN\xaf>\xa0\xbaz\x144\xe0A9\xb8?'
p336
ssS'DCS_Website_settings'
p337
(dp338
g29
(dp339
g199
S'DCS_Website_settings.html'
p340
sg201
S'DCS_Website\\settings'
p341
sg203
g13
(g14
g15
NtRp342
(dp343
g18
I1
sg19
I0
sg20
I21
sg21
I0
sg22
I0
sg23
I0
sg24
I0
sbssg38
S"`\xdf\xf3RBE\xb3\xfcC\xe3\xa6\x01\x96'\xaa;"
p344
ssS'people_urls'
p345
(dp346
g6
(dp347
g8
S'people_urls.html'
p348
sg10
S'people\\urls'
p349
sg12
g13
(g14
g15
NtRp350
(dp351
g18
I1
sg19
I0
sg20
I3
sg21
I0
sg22
I0
sg23
I0
sg24
I0
sbssg25
S'\x97F1\xc8ZD\x87f\x84\xe9\xfb\xfa\xa4\xd6\x1b\xd4'
p352
ssS'affiliates_tests'
p353
(dp354
g42
(dp355
S'html_filename'
p356
S'affiliates_tests.html'
p357
sS'name'
p358
S'affiliates\\tests'
p359
sS'nums'
p360
g13
(g14
g15
NtRp361
(dp362
g18
I1
sg19
I0
sg20
I11
sg21
I0
sg22
I0
sg23
I0
sg24
I0
sbssg51
S'/\x919\n\x81<@\xb1\x14\xc3\x0f\xec\xd0W\xb7Z'
p363
ssS'research_tests_tests_model'
p364
(dp365
g233
(dp366
S'html_filename'
p367
S'research_tests_tests_model.html'
p368
sS'name'
p369
S'research\\tests\\tests_model'
p370
sS'nums'
p371
g13
(g14
g15
NtRp372
(dp373
g18
I1
sg19
I0
sg20
I11
sg21
I0
sg22
I0
sg23
I0
sg24
I0
sbssg239
S'U\xc7S\xacFy\xde\xb0\x7f\xa8\n\xb2\x18\xc2\xb2\xe1'
p374
ssS'people_tests___init__'
p375
(dp376
g29
(dp377
g31
S'people_tests___init__.html'
p378
sg33
S'people\\tests\\__init__'
p379
sg35
g13
(g14
g15
NtRp380
(dp381
g18
I1
sg19
I0
sg20
I0
sg21
I0
sg22
I0
sg23
I0
sg24
I0
sbssg38
S'\xb0\xc8pN\xaf>\xa0\xbaz\x144\xe0A9\xb8?'
p382
ssS'events_urls'
p383
(dp384
g6
(dp385
g8
S'events_urls.html'
p386
sg10
S'events\\urls'
p387
sg12
g13
(g14
g15
NtRp388
(dp389
g18
I1
sg19
I0
sg20
I3
sg21
I0
sg22
I0
sg23
I0
sg24
I0
sbssg25
S'23L\x1c\xe4\xf9\xe0\x07n$\x9ce\xaa\r\xf1\xe2'
p390
ssS'news_models'
p391
(dp392
g29
(dp393
g103
S'news_models.html'
p394
sg105
S'news\\models'
p395
sg107
g13
(g14
g15
NtRp396
(dp397
g18
I1
sg19
I0
sg20
I7
sg21
I0
sg22
I0
sg23
I0
sg24
I0
sbssg38
S'\xc4\xa0\xc4\x17\xb9\x0e!/t\xf97\x12f\xbf2\x19'
p398
ssS'DCS_Website_views'
p399
(dp400
g6
(dp401
g199
S'DCS_Website_views.html'
p402
sg201
S'DCS_Website\\views'
p403
sg203
g13
(g14
g15
NtRp404
(dp405
g18
I1
sg19
I0
sg20
I54
sg21
I0
sg22
I0
sg23
I0
sg24
I0
sbssg25
S'\xe63\x9f\xd2\xca\xdf>\x93\xe3(\xed\xe3\xba_\xc67'
p406
ssS'events_admin'
p407
(dp408
g6
(dp409
g8
S'events_admin.html'
p410
sg10
S'events\\admin'
p411
sg12
g13
(g14
g15
NtRp412
(dp413
g18
I1
sg19
I0
sg20
I7
sg21
I0
sg22
I0
sg23
I0
sg24
I0
sbssg25
S'Z^\x93\xd0;j-Byy\xb8\xe9\xcc\x9c\xca\xb2'
p414
ssS'research_tests___init__'
p415
(dp416
g233
(dp417
g199
S'research_tests___init__.html'
p418
sg201
S'research\\tests\\__init__'
p419
sg203
g13
(g14
g15
NtRp420
(dp421
g18
I1
sg19
I0
sg20
I0
sg21
I0
sg22
I0
sg23
I0
sg24
I0
sbssg239
S'\xb0\xc8pN\xaf>\xa0\xbaz\x144\xe0A9\xb8?'
p422
ssS'people_views'
p423
(dp424
g6
(dp425
g164
S'people_views.html'
p426
sg166
S'people\\views'
p427
sg168
g13
(g14
g15
NtRp428
(dp429
g18
I1
sg19
I0
sg20
I11
sg21
I0
sg22
I0
sg23
I0
sg24
I0
sbssg25
S'1\x8c\x90\xab\x92\x00\xbb\xed\xe2~\xb3r\xe9\x00P\x89'
p430
ssS'announcements___init__'
p431
(dp432
g29
(dp433
g31
S'announcements___init__.html'
p434
sg33
S'announcements\\__init__'
p435
sg35
g13
(g14
g15
NtRp436
(dp437
g18
I1
sg19
I0
sg20
I0
sg21
I0
sg22
I0
sg23
I0
sg24
I0
sbssg38
S'\xb0\xc8pN\xaf>\xa0\xbaz\x144\xe0A9\xb8?'
p438
ssS'events_tests_tests_event_models'
p439
(dp440
g29
(dp441
g75
S'events_tests_tests_event_models.html'
p442
sg77
S'events\\tests\\tests_event_models'
p443
sg79
g13
(g14
g15
NtRp444
(dp445
g18
I1
sg19
I0
sg20
I11
sg21
I0
sg22
I0
sg23
I0
sg24
I0
sbssg38
S'\x1f\xb5\xd3B;\xe1\xe5\xd5\xe6\xcfWq\x8b\x1eW\xd5'
p446
ssS'images_admin'
p447
(dp448
g6
(dp449
g8
S'images_admin.html'
p450
sg10
S'images\\admin'
p451
sg12
g13
(g14
g15
NtRp452
(dp453
g18
I1
sg19
I0
sg20
I7
sg21
I0
sg22
I0
sg23
I0
sg24
I0
sbssg25
S'\x85x\xb3\x83d\x16\xadg`\x08\xac\x00\xbf\xdb=\xdf'
p454
ssS'people_tests_test_models'
p455
(dp456
g29
(dp457
S'html_filename'
p458
S'people_tests_test_models.html'
p459
sS'name'
p460
S'people\\tests\\test_models'
p461
sS'nums'
p462
g13
(g14
g15
NtRp463
(dp464
g18
I1
sg19
I0
sg20
I33
sg21
I0
sg22
I0
sg23
I0
sg24
I0
sbssg38
S'V\xce\xba\x1a1\xa1\xf7\x80\x87^\t|\xd7\xf4E\x04'
p465
ssS'research___init__'
p466
(dp467
g233
(dp468
g199
S'research___init__.html'
p469
sg201
S'research\\__init__'
p470
sg203
g13
(g14
g15
NtRp471
(dp472
g18
I1
sg19
I0
sg20
I0
sg21
I0
sg22
I0
sg23
I0
sg24
I0
sbssg239
S'\xb0\xc8pN\xaf>\xa0\xbaz\x144\xe0A9\xb8?'
p473
sssS'version'
p474
S'3.6'
p475
sS'settings'
p476
S'3\xcf\xa1\x19.\x88o$\x8cA\xde\xbd\xcd\x06\xa1\x0f'
p477
sS'format'
p478
I1
s.