(dp1
S'files'
p2
(dp3
S'DCS_Website_settings'
p4
(dp5
S'index'
p6
(dp7
S'html_filename'
p8
S'DCS_Website_settings.html'
p9
sS'name'
p10
S'DCS_Website\\settings'
p11
sS'nums'
p12
ccopy_reg
_reconstructor
p13
(ccoverage.results
Numbers
p14
c__builtin__
object
p15
NtRp16
(dp17
S'n_files'
p18
I1
sS'n_branches'
p19
I0
sS'n_statements'
p20
I21
sS'n_excluded'
p21
I0
sS'n_partial_branches'
p22
I0
sS'n_missing'
p23
I0
sS'n_missing_branches'
p24
I0
sbssS'hash'
p25
S'\x17\x84\x1di\xed\r\xad\xcff<\x80C\x93\x15t\x03'
p26
ssS'images_tests'
p27
(dp28
g6
(dp29
g8
S'images_tests.html'
p30
sg10
S'images\\tests'
p31
sg12
g13
(g14
g15
NtRp32
(dp33
g18
I1
sg19
I0
sg20
I1
sg21
I0
sg22
I0
sg23
I0
sg24
I0
sbssg25
S'\x97e\xc4\xf4\xb6\x04\xfd<\xae\xb2Y\x0e\xa0+\xf2\xcc'
p34
ssS'events___init__'
p35
(dp36
g6
(dp37
g8
S'events___init__.html'
p38
sg10
S'events\\__init__'
p39
sg12
g13
(g14
g15
NtRp40
(dp41
g18
I1
sg19
I0
sg20
I0
sg21
I0
sg22
I0
sg23
I0
sg24
I0
sbssg25
S'\xb0\xc8pN\xaf>\xa0\xbaz\x144\xe0A9\xb8?'
p42
ssS'people_tests'
p43
(dp44
g6
(dp45
g8
S'people_tests.html'
p46
sg10
S'people\\tests'
p47
sg12
g13
(g14
g15
NtRp48
(dp49
g18
I1
sg19
I0
sg20
I1
sg21
I0
sg22
I0
sg23
I0
sg24
I0
sbssg25
S'\x97e\xc4\xf4\xb6\x04\xfd<\xae\xb2Y\x0e\xa0+\xf2\xcc'
p50
ssS'events_models'
p51
(dp52
g6
(dp53
g8
S'events_models.html'
p54
sg10
S'events\\models'
p55
sg12
g13
(g14
g15
NtRp56
(dp57
g18
I1
sg19
I0
sg20
I6
sg21
I0
sg22
I0
sg23
I0
sg24
I0
sbssg25
S'\x8c\x88\xf1\xfdI\xf0\x16\xd7m\xfaN\xe2K\xf3\x9dI'
p58
ssS'manage'
p59
(dp60
g6
(dp61
g8
S'manage.html'
p62
sg10
g59
sg12
g13
(g14
g15
NtRp63
(dp64
g18
I1
sg19
I0
sg20
I6
sg21
I0
sg22
I0
sg23
I0
sg24
I0
sbssg25
S'\xec\xf4\xa0&Q\xd1\x8fg{\x8d|\x13\xdaS3\x18'
p65
ssS'images___init__'
p66
(dp67
g6
(dp68
g8
S'images___init__.html'
p69
sg10
S'images\\__init__'
p70
sg12
g13
(g14
g15
NtRp71
(dp72
g18
I1
sg19
I0
sg20
I0
sg21
I0
sg22
I0
sg23
I0
sg24
I0
sbssg25
S'\xb0\xc8pN\xaf>\xa0\xbaz\x144\xe0A9\xb8?'
p73
ssS'news_models'
p74
(dp75
g6
(dp76
g8
S'news_models.html'
p77
sg10
S'news\\models'
p78
sg12
g13
(g14
g15
NtRp79
(dp80
g18
I1
sg19
I0
sg20
I7
sg21
I0
sg22
I0
sg23
I1
sg24
I0
sbssg25
S'\xc9L\'\xda"\x04qyN\xdf:Gv\x9d\xe5K'
p81
ssS'people_models'
p82
(dp83
g6
(dp84
g8
S'people_models.html'
p85
sg10
S'people\\models'
p86
sg12
g13
(g14
g15
NtRp87
(dp88
g18
I1
sg19
I0
sg20
I27
sg21
I0
sg22
I0
sg23
I3
sg24
I0
sbssg25
S'_X\xb0\xac;TW\x05\x01\xfd\x07\xe3\xbf\xef\x16\x93'
p89
ssS'announcements_tests_tests_announcements_models'
p90
(dp91
g6
(dp92
g8
S'announcements_tests_tests_announcements_models.html'
p93
sg10
S'announcements\\tests\\tests_announcements_models'
p94
sg12
g13
(g14
g15
NtRp95
(dp96
g18
I1
sg19
I0
sg20
I11
sg21
I0
sg22
I0
sg23
I0
sg24
I0
sbssg25
S'\x1a\x8es\x9a\xa7W\xb4\x16\x89\xf5\x0eJp\n/g'
p97
ssS'images_models'
p98
(dp99
g6
(dp100
g8
S'images_models.html'
p101
sg10
S'images\\models'
p102
sg12
g13
(g14
g15
NtRp103
(dp104
g18
I1
sg19
I0
sg20
I8
sg21
I0
sg22
I0
sg23
I1
sg24
I0
sbssg25
S'\xd2\x83Z\xf7\xd9\xcf\xf8\x1a\xfb4xb\xe9L\x82\xd4'
p105
ssS'announcements___init__'
p106
(dp107
g6
(dp108
g8
S'announcements___init__.html'
p109
sg10
S'announcements\\__init__'
p110
sg12
g13
(g14
g15
NtRp111
(dp112
g18
I1
sg19
I0
sg20
I0
sg21
I0
sg22
I0
sg23
I0
sg24
I0
sbssg25
S'\xb0\xc8pN\xaf>\xa0\xbaz\x144\xe0A9\xb8?'
p113
ssS'events_tests_tests_event_models'
p114
(dp115
g6
(dp116
g8
S'events_tests_tests_event_models.html'
p117
sg10
S'events\\tests\\tests_event_models'
p118
sg12
g13
(g14
g15
NtRp119
(dp120
g18
I1
sg19
I0
sg20
I11
sg21
I0
sg22
I0
sg23
I0
sg24
I0
sbssg25
S'\xa1\xc6\x7fjzD\xc3u6j\xc7\xb3\xda[(\xff'
p121
ssS'news_tests'
p122
(dp123
g6
(dp124
g8
S'news_tests.html'
p125
sg10
S'news\\tests'
p126
sg12
g13
(g14
g15
NtRp127
(dp128
g18
I1
sg19
I0
sg20
I1
sg21
I0
sg22
I0
sg23
I0
sg24
I0
sbssg25
S'\x97e\xc4\xf4\xb6\x04\xfd<\xae\xb2Y\x0e\xa0+\xf2\xcc'
p129
ssS'announcements_models'
p130
(dp131
g6
(dp132
g8
S'announcements_models.html'
p133
sg10
S'announcements\\models'
p134
sg12
g13
(g14
g15
NtRp135
(dp136
g18
I1
sg19
I0
sg20
I7
sg21
I0
sg22
I0
sg23
I0
sg24
I0
sbssg25
S'\xb18\x00\x14\xf6"\xd2\xb9z\x03\xed\xbb\xb4\xe5\xff\x9c'
p137
ssS'DCS_Website___init__'
p138
(dp139
g6
(dp140
g8
S'DCS_Website___init__.html'
p141
sg10
S'DCS_Website\\__init__'
p142
sg12
g13
(g14
g15
NtRp143
(dp144
g18
I1
sg19
I0
sg20
I0
sg21
I0
sg22
I0
sg23
I0
sg24
I0
sbssg25
S'\xb0\xc8pN\xaf>\xa0\xbaz\x144\xe0A9\xb8?'
p145
ssS'announcements_tests___init__'
p146
(dp147
g6
(dp148
g8
S'announcements_tests___init__.html'
p149
sg10
S'announcements\\tests\\__init__'
p150
sg12
g13
(g14
g15
NtRp151
(dp152
g18
I1
sg19
I0
sg20
I0
sg21
I0
sg22
I0
sg23
I0
sg24
I0
sbssg25
S'\xb0\xc8pN\xaf>\xa0\xbaz\x144\xe0A9\xb8?'
p153
ssS'people___init__'
p154
(dp155
g6
(dp156
g8
S'people___init__.html'
p157
sg10
S'people\\__init__'
p158
sg12
g13
(g14
g15
NtRp159
(dp160
g18
I1
sg19
I0
sg20
I0
sg21
I0
sg22
I0
sg23
I0
sg24
I0
sbssg25
S'\xb0\xc8pN\xaf>\xa0\xbaz\x144\xe0A9\xb8?'
p161
ssS'news___init__'
p162
(dp163
g6
(dp164
g8
S'news___init__.html'
p165
sg10
S'news\\__init__'
p166
sg12
g13
(g14
g15
NtRp167
(dp168
g18
I1
sg19
I0
sg20
I0
sg21
I0
sg22
I0
sg23
I0
sg24
I0
sbssg25
S'\xb0\xc8pN\xaf>\xa0\xbaz\x144\xe0A9\xb8?'
p169
ssS'events_tests___init__'
p170
(dp171
g6
(dp172
g8
S'events_tests___init__.html'
p173
sg10
S'events\\tests\\__init__'
p174
sg12
g13
(g14
g15
NtRp175
(dp176
g18
I1
sg19
I0
sg20
I0
sg21
I0
sg22
I0
sg23
I0
sg24
I0
sbssg25
S'\xb0\xc8pN\xaf>\xa0\xbaz\x144\xe0A9\xb8?'
p177
sssS'version'
p178
S'3.6'
p179
sS'settings'
p180
S'3\xcf\xa1\x19.\x88o$\x8cA\xde\xbd\xcd\x06\xa1\x0f'
p181
sS'format'
p182
I1
s.