(dp1
S'files'
p2
(dp3
S'news_views'
p4
(dp5
S'index'
p6
(dp7
S'html_filename'
p8
S'news_views.html'
p9
sS'name'
p10
S'news\\views'
p11
sS'nums'
p12
ccopy_reg
_reconstructor
p13
(ccoverage.results
Numbers
p14
c__builtin__
object
p15
NtRp16
(dp17
S'n_files'
p18
I1
sS'n_branches'
p19
I0
sS'n_statements'
p20
I6
sS'n_excluded'
p21
I0
sS'n_partial_branches'
p22
I0
sS'n_missing'
p23
I3
sS'n_missing_branches'
p24
I0
sbssS'hash'
p25
S'\xf5\x01/u\xa8\x81\xc5\xff\xf5\xa0x\x8e\xd2u\x8d\x12'
p26
ssS'news_tests___init__'
p27
(dp28
S'index'
p29
(dp30
S'html_filename'
p31
S'news_tests___init__.html'
p32
sS'name'
p33
S'news\\tests\\__init__'
p34
sS'nums'
p35
g13
(g14
g15
NtRp36
(dp37
g18
I1
sg19
I0
sg20
I0
sg21
I0
sg22
I0
sg23
I0
sg24
I0
sbssS'hash'
p38
S'\xb0\xc8pN\xaf>\xa0\xbaz\x144\xe0A9\xb8?'
p39
ssS'affiliates___init__'
p40
(dp41
S'index'
p42
(dp43
S'html_filename'
p44
S'affiliates___init__.html'
p45
sS'name'
p46
S'affiliates\\__init__'
p47
sS'nums'
p48
g13
(g14
g15
NtRp49
(dp50
g18
I1
sg19
I0
sg20
I0
sg21
I0
sg22
I0
sg23
I0
sg24
I0
sbssS'hash'
p51
S'\xb0\xc8pN\xaf>\xa0\xbaz\x144\xe0A9\xb8?'
p52
ssS'manage'
p53
(dp54
g29
(dp55
g31
S'manage.html'
p56
sg33
g53
sg35
g13
(g14
g15
NtRp57
(dp58
g18
I1
sg19
I0
sg20
I6
sg21
I0
sg22
I0
sg23
I0
sg24
I0
sbssg38
S'\xec\xf4\xa0&Q\xd1\x8fg{\x8d|\x13\xdaS3\x18'
p59
ssS'affiliates_models'
p60
(dp61
g42
(dp62
g44
S'affiliates_models.html'
p63
sg46
S'affiliates\\models'
p64
sg48
g13
(g14
g15
NtRp65
(dp66
g18
I1
sg19
I0
sg20
I11
sg21
I0
sg22
I0
sg23
I1
sg24
I0
sbssg51
S'%\xd5\xf7\xf3c\xfa\xa2\xa6/\xbfH\xf1\xde\x1fU\xce'
p67
ssS'events_tests_tests_events_views'
p68
(dp69
S'index'
p70
(dp71
S'html_filename'
p72
S'events_tests_tests_events_views.html'
p73
sS'name'
p74
S'events\\tests\\tests_events_views'
p75
sS'nums'
p76
g13
(g14
g15
NtRp77
(dp78
g18
I1
sg19
I0
sg20
I14
sg21
I0
sg22
I0
sg23
I0
sg24
I0
sbssS'hash'
p79
S'\x83\xf1,\x15+=\x11\xa2/\x86r4"\x08\xdb\x9c'
p80
ssS'people_models'
p81
(dp82
g29
(dp83
S'html_filename'
p84
S'people_models.html'
p85
sS'name'
p86
S'people\\models'
p87
sS'nums'
p88
g13
(g14
g15
NtRp89
(dp90
g18
I1
sg19
I0
sg20
I27
sg21
I0
sg22
I0
sg23
I0
sg24
I0
sbssg38
S'\x93\x83|\xd9\xa4\xd7X"\xb2\x03s\xf4\xa0\x12\xbe\xf1'
p91
ssS'images_tests_test_models'
p92
(dp93
g29
(dp94
g31
S'images_tests_test_models.html'
p95
sg33
S'images\\tests\\test_models'
p96
sg35
g13
(g14
g15
NtRp97
(dp98
g18
I1
sg19
I0
sg20
I11
sg21
I0
sg22
I0
sg23
I0
sg24
I0
sbssg38
S'\x94.\x1c\x90XV\xf0N\xbf\xd5x\xac\xff\xb1\x8e\xf4'
p99
ssS'images_models'
p100
(dp101
g29
(dp102
g84
S'images_models.html'
p103
sg86
S'images\\models'
p104
sg88
g13
(g14
g15
NtRp105
(dp106
g18
I1
sg19
I0
sg20
I8
sg21
I0
sg22
I0
sg23
I0
sg24
I0
sbssg38
S'\x05\x8de9Q\x8f\xac_\x0e\xf5\xc7\xa6~/\xb1\x85'
p107
ssS'announcements_views'
p108
(dp109
g6
(dp110
g84
S'announcements_views.html'
p111
sg86
S'announcements\\views'
p112
sg88
g13
(g14
g15
NtRp113
(dp114
g18
I1
sg19
I0
sg20
I6
sg21
I0
sg22
I0
sg23
I0
sg24
I0
sbssg25
S'\xe3\x1f\x07\x97w 0I\x0c\xa3tzQ\xc2\xd2\x89'
p115
ssS'people_admin'
p116
(dp117
g6
(dp118
g8
S'people_admin.html'
p119
sg10
S'people\\admin'
p120
sg12
g13
(g14
g15
NtRp121
(dp122
g18
I1
sg19
I0
sg20
I17
sg21
I0
sg22
I0
sg23
I0
sg24
I0
sbssg25
S'2\xd6\xf2=:/6+\xe9D\xc1\xaa\x86\xe7Ue'
p123
ssS'DCS_Website___init__'
p124
(dp125
g29
(dp126
g31
S'DCS_Website___init__.html'
p127
sg33
S'DCS_Website\\__init__'
p128
sg35
g13
(g14
g15
NtRp129
(dp130
g18
I1
sg19
I0
sg20
I0
sg21
I0
sg22
I0
sg23
I0
sg24
I0
sbssg38
S'\xb0\xc8pN\xaf>\xa0\xbaz\x144\xe0A9\xb8?'
p131
ssS'announcements_urls'
p132
(dp133
g6
(dp134
g8
S'announcements_urls.html'
p135
sg10
S'announcements\\urls'
p136
sg12
g13
(g14
g15
NtRp137
(dp138
g18
I1
sg19
I0
sg20
I3
sg21
I0
sg22
I0
sg23
I0
sg24
I0
sbssg25
S'\x1fD{\xad\x8a\x85\xff\x9e\xe0\xfa\xd9\xa6@\xbba\xf5'
p139
ssS'images_tests___init__'
p140
(dp141
g29
(dp142
g31
S'images_tests___init__.html'
p143
sg33
S'images\\tests\\__init__'
p144
sg35
g13
(g14
g15
NtRp145
(dp146
g18
I1
sg19
I0
sg20
I0
sg21
I0
sg22
I0
sg23
I0
sg24
I0
sbssg38
S'\xb0\xc8pN\xaf>\xa0\xbaz\x144\xe0A9\xb8?'
p147
ssS'announcements_tests_tests_announcements_views'
p148
(dp149
S'index'
p150
(dp151
g84
S'announcements_tests_tests_announcements_views.html'
p152
sg86
S'announcements\\tests\\tests_announcements_views'
p153
sg88
g13
(g14
g15
NtRp154
(dp155
g18
I1
sg19
I0
sg20
I14
sg21
I0
sg22
I0
sg23
I0
sg24
I0
sbssS'hash'
p156
S'F\xc3\xa7\xb2U\xd1\xc8\xe2\xad\x8bv\xe8\x83\xdd\xbdi'
p157
ssS'DCS_Website_tests'
p158
(dp159
g150
(dp160
S'html_filename'
p161
S'DCS_Website_tests.html'
p162
sS'name'
p163
S'DCS_Website\\tests'
p164
sS'nums'
p165
g13
(g14
g15
NtRp166
(dp167
g18
I1
sg19
I0
sg20
I33
sg21
I0
sg22
I0
sg23
I0
sg24
I0
sbssg156
S"\x90'\xabJ\xa6f\xca,\xed\xf4m) Y\xd3\x87"
p168
ssS'news_tests_test_models'
p169
(dp170
g29
(dp171
g31
S'news_tests_test_models.html'
p172
sg33
S'news\\tests\\test_models'
p173
sg35
g13
(g14
g15
NtRp174
(dp175
g18
I1
sg19
I0
sg20
I11
sg21
I0
sg22
I0
sg23
I0
sg24
I0
sbssg38
S'\xf9\xc6\xf2Yt\x86Z\x8f\x9d\x99uG\x88\x9fW\x02'
p176
ssS'announcements_tests_tests_announcements_models'
p177
(dp178
g29
(dp179
g31
S'announcements_tests_tests_announcements_models.html'
p180
sg33
S'announcements\\tests\\tests_announcements_models'
p181
sg35
g13
(g14
g15
NtRp182
(dp183
g18
I1
sg19
I0
sg20
I11
sg21
I0
sg22
I0
sg23
I0
sg24
I0
sbssg38
S"'A\xc3\xe3\xef \x98/\x0c\xd3\xefJ3A^\xc5"
p184
ssS'announcements_models'
p185
(dp186
g29
(dp187
g84
S'announcements_models.html'
p188
sg86
S'announcements\\models'
p189
sg88
g13
(g14
g15
NtRp190
(dp191
g18
I1
sg19
I0
sg20
I7
sg21
I0
sg22
I0
sg23
I0
sg24
I0
sbssg38
S'\xe2\x02\n\xe2\x9ek\n&\x1a\xc2\xae\xc1\xaa-\x89\x90'
p192
ssS'announcements_admin'
p193
(dp194
g6
(dp195
g8
S'announcements_admin.html'
p196
sg10
S'announcements\\admin'
p197
sg12
g13
(g14
g15
NtRp198
(dp199
g18
I1
sg19
I0
sg20
I7
sg21
I0
sg22
I0
sg23
I0
sg24
I0
sbssg25
S"3'7\x93F\xcf\xd2\x01\xd6@L\n\x8b\xa1wG"
p200
ssS'people___init__'
p201
(dp202
g29
(dp203
g31
S'people___init__.html'
p204
sg33
S'people\\__init__'
p205
sg35
g13
(g14
g15
NtRp206
(dp207
g18
I1
sg19
I0
sg20
I0
sg21
I0
sg22
I0
sg23
I0
sg24
I0
sbssg38
S'\xb0\xc8pN\xaf>\xa0\xbaz\x144\xe0A9\xb8?'
p208
ssS'people_urls'
p209
(dp210
g6
(dp211
g8
S'people_urls.html'
p212
sg10
S'people\\urls'
p213
sg12
g13
(g14
g15
NtRp214
(dp215
g18
I1
sg19
I0
sg20
I3
sg21
I0
sg22
I0
sg23
I0
sg24
I0
sbssg25
S'\x97F1\xc8ZD\x87f\x84\xe9\xfb\xfa\xa4\xd6\x1b\xd4'
p216
ssS'news___init__'
p217
(dp218
g29
(dp219
g31
S'news___init__.html'
p220
sg33
S'news\\__init__'
p221
sg35
g13
(g14
g15
NtRp222
(dp223
g18
I1
sg19
I0
sg20
I0
sg21
I0
sg22
I0
sg23
I0
sg24
I0
sbssg38
S'\xb0\xc8pN\xaf>\xa0\xbaz\x144\xe0A9\xb8?'
p224
ssS'events___init__'
p225
(dp226
g29
(dp227
g31
S'events___init__.html'
p228
sg33
S'events\\__init__'
p229
sg35
g13
(g14
g15
NtRp230
(dp231
g18
I1
sg19
I0
sg20
I0
sg21
I0
sg22
I0
sg23
I0
sg24
I0
sbssg38
S'\xb0\xc8pN\xaf>\xa0\xbaz\x144\xe0A9\xb8?'
p232
ssS'affiliates_admin'
p233
(dp234
g42
(dp235
g44
S'affiliates_admin.html'
p236
sg46
S'affiliates\\admin'
p237
sg48
g13
(g14
g15
NtRp238
(dp239
g18
I1
sg19
I0
sg20
I7
sg21
I0
sg22
I0
sg23
I0
sg24
I0
sbssg51
S'Ul\x86\xf1\xaa\xc4\x94#\x87\xd3\xa5""\xa8H\x9b'
p240
ssS'events_models'
p241
(dp242
g29
(dp243
g31
S'events_models.html'
p244
sg33
S'events\\models'
p245
sg35
g13
(g14
g15
NtRp246
(dp247
g18
I1
sg19
I0
sg20
I6
sg21
I0
sg22
I0
sg23
I0
sg24
I0
sbssg38
S'\x9f\x93\xf0F\x887\xb1\x0b\xa1%4\x19\xa5\xdb\x93F'
p248
ssS'images___init__'
p249
(dp250
g29
(dp251
g31
S'images___init__.html'
p252
sg33
S'images\\__init__'
p253
sg35
g13
(g14
g15
NtRp254
(dp255
g18
I1
sg19
I0
sg20
I0
sg21
I0
sg22
I0
sg23
I0
sg24
I0
sbssg38
S'\xb0\xc8pN\xaf>\xa0\xbaz\x144\xe0A9\xb8?'
p256
ssS'news_admin'
p257
(dp258
g6
(dp259
g8
S'news_admin.html'
p260
sg10
S'news\\admin'
p261
sg12
g13
(g14
g15
NtRp262
(dp263
g18
I1
sg19
I0
sg20
I7
sg21
I0
sg22
I0
sg23
I0
sg24
I0
sbssg25
S'\xf6\x00cp\x87\xf1\x11\xa6=\xcb\x81\x88Z>D/'
p264
ssS'announcements_tests___init__'
p265
(dp266
g29
(dp267
g31
S'announcements_tests___init__.html'
p268
sg33
S'announcements\\tests\\__init__'
p269
sg35
g13
(g14
g15
NtRp270
(dp271
g18
I1
sg19
I0
sg20
I0
sg21
I0
sg22
I0
sg23
I0
sg24
I0
sbssg38
S'\xb0\xc8pN\xaf>\xa0\xbaz\x144\xe0A9\xb8?'
p272
ssS'events_views'
p273
(dp274
g6
(dp275
g8
S'events_views.html'
p276
sg10
S'events\\views'
p277
sg12
g13
(g14
g15
NtRp278
(dp279
g18
I1
sg19
I0
sg20
I6
sg21
I0
sg22
I0
sg23
I0
sg24
I0
sbssg25
S'\xe3&\xeb\xc5\xcbY\xa1 \xe9\xd6h\x8ah\x96\xdb\xef'
p280
ssS'events_tests___init__'
p281
(dp282
g29
(dp283
g31
S'events_tests___init__.html'
p284
sg33
S'events\\tests\\__init__'
p285
sg35
g13
(g14
g15
NtRp286
(dp287
g18
I1
sg19
I0
sg20
I0
sg21
I0
sg22
I0
sg23
I0
sg24
I0
sbssg38
S'\xb0\xc8pN\xaf>\xa0\xbaz\x144\xe0A9\xb8?'
p288
ssS'DCS_Website_settings'
p289
(dp290
g29
(dp291
g44
S'DCS_Website_settings.html'
p292
sg46
S'DCS_Website\\settings'
p293
sg48
g13
(g14
g15
NtRp294
(dp295
g18
I1
sg19
I0
sg20
I21
sg21
I0
sg22
I0
sg23
I0
sg24
I0
sbssg38
S'\xbf*lkG\r\x1b\xe8t\xb3\x99\xb9\x95\xac\xbf\x03'
p296
ssS'DCS_Website_urls'
p297
(dp298
g6
(dp299
S'html_filename'
p300
S'DCS_Website_urls.html'
p301
sS'name'
p302
S'DCS_Website\\urls'
p303
sS'nums'
p304
g13
(g14
g15
NtRp305
(dp306
g18
I1
sg19
I0
sg20
I8
sg21
I0
sg22
I0
sg23
I0
sg24
I0
sbssg25
S'\x14#\xcd\xe7Tkx\x03\x15R*\xbf\xc6@\x9f\x84'
p307
ssS'affiliates_tests'
p308
(dp309
g42
(dp310
g44
S'affiliates_tests.html'
p311
sg46
S'affiliates\\tests'
p312
sg48
g13
(g14
g15
NtRp313
(dp314
g18
I1
sg19
I0
sg20
I1
sg21
I0
sg22
I0
sg23
I0
sg24
I0
sbssg51
S'\x97e\xc4\xf4\xb6\x04\xfd<\xae\xb2Y\x0e\xa0+\xf2\xcc'
p315
ssS'news_urls'
p316
(dp317
g6
(dp318
g8
S'news_urls.html'
p319
sg10
S'news\\urls'
p320
sg12
g13
(g14
g15
NtRp321
(dp322
g18
I1
sg19
I0
sg20
I3
sg21
I0
sg22
I0
sg23
I0
sg24
I0
sbssg25
S'/\x9bR\xf3O@\x03sG\xa9\xd6\xd3\x13\\`\x8d'
p323
ssS'people_tests___init__'
p324
(dp325
g29
(dp326
g31
S'people_tests___init__.html'
p327
sg33
S'people\\tests\\__init__'
p328
sg35
g13
(g14
g15
NtRp329
(dp330
g18
I1
sg19
I0
sg20
I0
sg21
I0
sg22
I0
sg23
I0
sg24
I0
sbssg38
S'\xb0\xc8pN\xaf>\xa0\xbaz\x144\xe0A9\xb8?'
p331
ssS'news_models'
p332
(dp333
g29
(dp334
g84
S'news_models.html'
p335
sg86
S'news\\models'
p336
sg88
g13
(g14
g15
NtRp337
(dp338
g18
I1
sg19
I0
sg20
I7
sg21
I0
sg22
I0
sg23
I0
sg24
I0
sbssg38
S'\xc4\xa0\xc4\x17\xb9\x0e!/t\xf97\x12f\xbf2\x19'
p339
ssS'DCS_Website_views'
p340
(dp341
g6
(dp342
g44
S'DCS_Website_views.html'
p343
sg46
S'DCS_Website\\views'
p344
sg48
g13
(g14
g15
NtRp345
(dp346
g18
I1
sg19
I0
sg20
I56
sg21
I0
sg22
I0
sg23
I0
sg24
I0
sbssg25
S'=\x0b\x19\xfb>\x99\xb6\x0b\xc7\xdd#H`<\x00\xbd'
p347
ssS'events_admin'
p348
(dp349
g6
(dp350
g8
S'events_admin.html'
p351
sg10
S'events\\admin'
p352
sg12
g13
(g14
g15
NtRp353
(dp354
g18
I1
sg19
I0
sg20
I7
sg21
I0
sg22
I0
sg23
I0
sg24
I0
sbssg25
S'Z^\x93\xd0;j-Byy\xb8\xe9\xcc\x9c\xca\xb2'
p355
ssS'people_views'
p356
(dp357
g6
(dp358
g161
S'people_views.html'
p359
sg163
S'people\\views'
p360
sg165
g13
(g14
g15
NtRp361
(dp362
g18
I1
sg19
I0
sg20
I11
sg21
I0
sg22
I0
sg23
I0
sg24
I0
sbssg25
S'1\x8c\x90\xab\x92\x00\xbb\xed\xe2~\xb3r\xe9\x00P\x89'
p363
ssS'announcements___init__'
p364
(dp365
g29
(dp366
g31
S'announcements___init__.html'
p367
sg33
S'announcements\\__init__'
p368
sg35
g13
(g14
g15
NtRp369
(dp370
g18
I1
sg19
I0
sg20
I0
sg21
I0
sg22
I0
sg23
I0
sg24
I0
sbssg38
S'\xb0\xc8pN\xaf>\xa0\xbaz\x144\xe0A9\xb8?'
p371
ssS'events_tests_tests_event_models'
p372
(dp373
g29
(dp374
g72
S'events_tests_tests_event_models.html'
p375
sg74
S'events\\tests\\tests_event_models'
p376
sg76
g13
(g14
g15
NtRp377
(dp378
g18
I1
sg19
I0
sg20
I11
sg21
I0
sg22
I0
sg23
I0
sg24
I0
sbssg38
S'\x1f\xb5\xd3B;\xe1\xe5\xd5\xe6\xcfWq\x8b\x1eW\xd5'
p379
ssS'images_admin'
p380
(dp381
g6
(dp382
g8
S'images_admin.html'
p383
sg10
S'images\\admin'
p384
sg12
g13
(g14
g15
NtRp385
(dp386
g18
I1
sg19
I0
sg20
I7
sg21
I0
sg22
I0
sg23
I0
sg24
I0
sbssg25
S'\x85x\xb3\x83d\x16\xadg`\x08\xac\x00\xbf\xdb=\xdf'
p387
ssS'events_urls'
p388
(dp389
g6
(dp390
g8
S'events_urls.html'
p391
sg10
S'events\\urls'
p392
sg12
g13
(g14
g15
NtRp393
(dp394
g18
I1
sg19
I0
sg20
I3
sg21
I0
sg22
I0
sg23
I0
sg24
I0
sbssg25
S'23L\x1c\xe4\xf9\xe0\x07n$\x9ce\xaa\r\xf1\xe2'
p395
ssS'people_tests_test_models'
p396
(dp397
g29
(dp398
g161
S'people_tests_test_models.html'
p399
sg163
S'people\\tests\\test_models'
p400
sg165
g13
(g14
g15
NtRp401
(dp402
g18
I1
sg19
I0
sg20
I33
sg21
I0
sg22
I0
sg23
I0
sg24
I0
sbssg38
S'\xbf\xc9\x16KC\xf0=\xe2\x15\x1fg\n\xc3\xc4\xa2['
p403
sssS'version'
p404
S'3.6'
p405
sS'settings'
p406
S'3\xcf\xa1\x19.\x88o$\x8cA\xde\xbd\xcd\x06\xa1\x0f'
p407
sS'format'
p408
I1
s.