(dp1
S'files'
p2
(dp3
S'news_views'
p4
(dp5
S'index'
p6
(dp7
S'html_filename'
p8
S'news_views.html'
p9
sS'name'
p10
S'news\\views'
p11
sS'nums'
p12
ccopy_reg
_reconstructor
p13
(ccoverage.results
Numbers
p14
c__builtin__
object
p15
NtRp16
(dp17
S'n_files'
p18
I1
sS'n_branches'
p19
I0
sS'n_statements'
p20
I6
sS'n_excluded'
p21
I0
sS'n_partial_branches'
p22
I0
sS'n_missing'
p23
I3
sS'n_missing_branches'
p24
I0
sbssS'hash'
p25
S'\xf5\x01/u\xa8\x81\xc5\xff\xf5\xa0x\x8e\xd2u\x8d\x12'
p26
ssS'news_tests___init__'
p27
(dp28
S'index'
p29
(dp30
S'html_filename'
p31
S'news_tests___init__.html'
p32
sS'name'
p33
S'news\\tests\\__init__'
p34
sS'nums'
p35
g13
(g14
g15
NtRp36
(dp37
g18
I1
sg19
I0
sg20
I0
sg21
I0
sg22
I0
sg23
I0
sg24
I0
sbssS'hash'
p38
S'\xb0\xc8pN\xaf>\xa0\xbaz\x144\xe0A9\xb8?'
p39
ssS'manage'
p40
(dp41
g29
(dp42
g31
S'manage.html'
p43
sg33
g40
sg35
g13
(g14
g15
NtRp44
(dp45
g18
I1
sg19
I0
sg20
I6
sg21
I0
sg22
I0
sg23
I0
sg24
I0
sbssg38
S'\xec\xf4\xa0&Q\xd1\x8fg{\x8d|\x13\xdaS3\x18'
p46
ssS'events_tests_tests_events_views'
p47
(dp48
S'index'
p49
(dp50
S'html_filename'
p51
S'events_tests_tests_events_views.html'
p52
sS'name'
p53
S'events\\tests\\tests_events_views'
p54
sS'nums'
p55
g13
(g14
g15
NtRp56
(dp57
g18
I1
sg19
I0
sg20
I14
sg21
I0
sg22
I0
sg23
I0
sg24
I0
sbssS'hash'
p58
S'\x83\xf1,\x15+=\x11\xa2/\x86r4"\x08\xdb\x9c'
p59
ssS'people_models'
p60
(dp61
g29
(dp62
S'html_filename'
p63
S'people_models.html'
p64
sS'name'
p65
S'people\\models'
p66
sS'nums'
p67
g13
(g14
g15
NtRp68
(dp69
g18
I1
sg19
I0
sg20
I27
sg21
I0
sg22
I0
sg23
I0
sg24
I0
sbssg38
S'\x93\x83|\xd9\xa4\xd7X"\xb2\x03s\xf4\xa0\x12\xbe\xf1'
p70
ssS'images_tests_test_models'
p71
(dp72
g29
(dp73
g31
S'images_tests_test_models.html'
p74
sg33
S'images\\tests\\test_models'
p75
sg35
g13
(g14
g15
NtRp76
(dp77
g18
I1
sg19
I0
sg20
I11
sg21
I0
sg22
I0
sg23
I0
sg24
I0
sbssg38
S'\x94.\x1c\x90XV\xf0N\xbf\xd5x\xac\xff\xb1\x8e\xf4'
p78
ssS'images_models'
p79
(dp80
g29
(dp81
g63
S'images_models.html'
p82
sg65
S'images\\models'
p83
sg67
g13
(g14
g15
NtRp84
(dp85
g18
I1
sg19
I0
sg20
I8
sg21
I0
sg22
I0
sg23
I0
sg24
I0
sbssg38
S'\x05\x8de9Q\x8f\xac_\x0e\xf5\xc7\xa6~/\xb1\x85'
p86
ssS'announcements_views'
p87
(dp88
g6
(dp89
g63
S'announcements_views.html'
p90
sg65
S'announcements\\views'
p91
sg67
g13
(g14
g15
NtRp92
(dp93
g18
I1
sg19
I0
sg20
I6
sg21
I0
sg22
I0
sg23
I0
sg24
I0
sbssg25
S'\xe3\x1f\x07\x97w 0I\x0c\xa3tzQ\xc2\xd2\x89'
p94
ssS'people_admin'
p95
(dp96
g6
(dp97
g8
S'people_admin.html'
p98
sg10
S'people\\admin'
p99
sg12
g13
(g14
g15
NtRp100
(dp101
g18
I1
sg19
I0
sg20
I17
sg21
I0
sg22
I0
sg23
I0
sg24
I0
sbssg25
S'2\xd6\xf2=:/6+\xe9D\xc1\xaa\x86\xe7Ue'
p102
ssS'DCS_Website___init__'
p103
(dp104
g29
(dp105
g31
S'DCS_Website___init__.html'
p106
sg33
S'DCS_Website\\__init__'
p107
sg35
g13
(g14
g15
NtRp108
(dp109
g18
I1
sg19
I0
sg20
I0
sg21
I0
sg22
I0
sg23
I0
sg24
I0
sbssg38
S'\xb0\xc8pN\xaf>\xa0\xbaz\x144\xe0A9\xb8?'
p110
ssS'announcements_urls'
p111
(dp112
g6
(dp113
g8
S'announcements_urls.html'
p114
sg10
S'announcements\\urls'
p115
sg12
g13
(g14
g15
NtRp116
(dp117
g18
I1
sg19
I0
sg20
I3
sg21
I0
sg22
I0
sg23
I0
sg24
I0
sbssg25
S'\x1fD{\xad\x8a\x85\xff\x9e\xe0\xfa\xd9\xa6@\xbba\xf5'
p118
ssS'images_tests___init__'
p119
(dp120
g29
(dp121
g31
S'images_tests___init__.html'
p122
sg33
S'images\\tests\\__init__'
p123
sg35
g13
(g14
g15
NtRp124
(dp125
g18
I1
sg19
I0
sg20
I0
sg21
I0
sg22
I0
sg23
I0
sg24
I0
sbssg38
S'\xb0\xc8pN\xaf>\xa0\xbaz\x144\xe0A9\xb8?'
p126
ssS'announcements_tests_tests_announcements_views'
p127
(dp128
S'index'
p129
(dp130
g63
S'announcements_tests_tests_announcements_views.html'
p131
sg65
S'announcements\\tests\\tests_announcements_views'
p132
sg67
g13
(g14
g15
NtRp133
(dp134
g18
I1
sg19
I0
sg20
I14
sg21
I0
sg22
I0
sg23
I0
sg24
I0
sbssS'hash'
p135
S'F\xc3\xa7\xb2U\xd1\xc8\xe2\xad\x8bv\xe8\x83\xdd\xbdi'
p136
ssS'DCS_Website_tests'
p137
(dp138
g129
(dp139
S'html_filename'
p140
S'DCS_Website_tests.html'
p141
sS'name'
p142
S'DCS_Website\\tests'
p143
sS'nums'
p144
g13
(g14
g15
NtRp145
(dp146
g18
I1
sg19
I0
sg20
I33
sg21
I0
sg22
I0
sg23
I0
sg24
I0
sbssg135
S"\x90'\xabJ\xa6f\xca,\xed\xf4m) Y\xd3\x87"
p147
ssS'news_tests_test_models'
p148
(dp149
g29
(dp150
g31
S'news_tests_test_models.html'
p151
sg33
S'news\\tests\\test_models'
p152
sg35
g13
(g14
g15
NtRp153
(dp154
g18
I1
sg19
I0
sg20
I11
sg21
I0
sg22
I0
sg23
I0
sg24
I0
sbssg38
S'\xf9\xc6\xf2Yt\x86Z\x8f\x9d\x99uG\x88\x9fW\x02'
p155
ssS'announcements_tests_tests_announcements_models'
p156
(dp157
g29
(dp158
g31
S'announcements_tests_tests_announcements_models.html'
p159
sg33
S'announcements\\tests\\tests_announcements_models'
p160
sg35
g13
(g14
g15
NtRp161
(dp162
g18
I1
sg19
I0
sg20
I11
sg21
I0
sg22
I0
sg23
I0
sg24
I0
sbssg38
S"'A\xc3\xe3\xef \x98/\x0c\xd3\xefJ3A^\xc5"
p163
ssS'announcements_models'
p164
(dp165
g29
(dp166
g63
S'announcements_models.html'
p167
sg65
S'announcements\\models'
p168
sg67
g13
(g14
g15
NtRp169
(dp170
g18
I1
sg19
I0
sg20
I7
sg21
I0
sg22
I0
sg23
I0
sg24
I0
sbssg38
S'\xe2\x02\n\xe2\x9ek\n&\x1a\xc2\xae\xc1\xaa-\x89\x90'
p171
ssS'announcements_admin'
p172
(dp173
g6
(dp174
g8
S'announcements_admin.html'
p175
sg10
S'announcements\\admin'
p176
sg12
g13
(g14
g15
NtRp177
(dp178
g18
I1
sg19
I0
sg20
I7
sg21
I0
sg22
I0
sg23
I0
sg24
I0
sbssg25
S"3'7\x93F\xcf\xd2\x01\xd6@L\n\x8b\xa1wG"
p179
ssS'people___init__'
p180
(dp181
g29
(dp182
g31
S'people___init__.html'
p183
sg33
S'people\\__init__'
p184
sg35
g13
(g14
g15
NtRp185
(dp186
g18
I1
sg19
I0
sg20
I0
sg21
I0
sg22
I0
sg23
I0
sg24
I0
sbssg38
S'\xb0\xc8pN\xaf>\xa0\xbaz\x144\xe0A9\xb8?'
p187
ssS'people_urls'
p188
(dp189
g6
(dp190
g8
S'people_urls.html'
p191
sg10
S'people\\urls'
p192
sg12
g13
(g14
g15
NtRp193
(dp194
g18
I1
sg19
I0
sg20
I3
sg21
I0
sg22
I0
sg23
I0
sg24
I0
sbssg25
S'\x97F1\xc8ZD\x87f\x84\xe9\xfb\xfa\xa4\xd6\x1b\xd4'
p195
ssS'news___init__'
p196
(dp197
g29
(dp198
g31
S'news___init__.html'
p199
sg33
S'news\\__init__'
p200
sg35
g13
(g14
g15
NtRp201
(dp202
g18
I1
sg19
I0
sg20
I0
sg21
I0
sg22
I0
sg23
I0
sg24
I0
sbssg38
S'\xb0\xc8pN\xaf>\xa0\xbaz\x144\xe0A9\xb8?'
p203
ssS'events___init__'
p204
(dp205
g29
(dp206
g31
S'events___init__.html'
p207
sg33
S'events\\__init__'
p208
sg35
g13
(g14
g15
NtRp209
(dp210
g18
I1
sg19
I0
sg20
I0
sg21
I0
sg22
I0
sg23
I0
sg24
I0
sbssg38
S'\xb0\xc8pN\xaf>\xa0\xbaz\x144\xe0A9\xb8?'
p211
ssS'events_models'
p212
(dp213
g29
(dp214
g31
S'events_models.html'
p215
sg33
S'events\\models'
p216
sg35
g13
(g14
g15
NtRp217
(dp218
g18
I1
sg19
I0
sg20
I6
sg21
I0
sg22
I0
sg23
I0
sg24
I0
sbssg38
S'\x9f\x93\xf0F\x887\xb1\x0b\xa1%4\x19\xa5\xdb\x93F'
p219
ssS'images___init__'
p220
(dp221
g29
(dp222
g31
S'images___init__.html'
p223
sg33
S'images\\__init__'
p224
sg35
g13
(g14
g15
NtRp225
(dp226
g18
I1
sg19
I0
sg20
I0
sg21
I0
sg22
I0
sg23
I0
sg24
I0
sbssg38
S'\xb0\xc8pN\xaf>\xa0\xbaz\x144\xe0A9\xb8?'
p227
ssS'news_admin'
p228
(dp229
g6
(dp230
g8
S'news_admin.html'
p231
sg10
S'news\\admin'
p232
sg12
g13
(g14
g15
NtRp233
(dp234
g18
I1
sg19
I0
sg20
I7
sg21
I0
sg22
I0
sg23
I0
sg24
I0
sbssg25
S'\xf6\x00cp\x87\xf1\x11\xa6=\xcb\x81\x88Z>D/'
p235
ssS'announcements_tests___init__'
p236
(dp237
g29
(dp238
g31
S'announcements_tests___init__.html'
p239
sg33
S'announcements\\tests\\__init__'
p240
sg35
g13
(g14
g15
NtRp241
(dp242
g18
I1
sg19
I0
sg20
I0
sg21
I0
sg22
I0
sg23
I0
sg24
I0
sbssg38
S'\xb0\xc8pN\xaf>\xa0\xbaz\x144\xe0A9\xb8?'
p243
ssS'events_views'
p244
(dp245
g6
(dp246
g8
S'events_views.html'
p247
sg10
S'events\\views'
p248
sg12
g13
(g14
g15
NtRp249
(dp250
g18
I1
sg19
I0
sg20
I6
sg21
I0
sg22
I0
sg23
I0
sg24
I0
sbssg25
S'\xe3&\xeb\xc5\xcbY\xa1 \xe9\xd6h\x8ah\x96\xdb\xef'
p251
ssS'events_tests___init__'
p252
(dp253
g29
(dp254
g31
S'events_tests___init__.html'
p255
sg33
S'events\\tests\\__init__'
p256
sg35
g13
(g14
g15
NtRp257
(dp258
g18
I1
sg19
I0
sg20
I0
sg21
I0
sg22
I0
sg23
I0
sg24
I0
sbssg38
S'\xb0\xc8pN\xaf>\xa0\xbaz\x144\xe0A9\xb8?'
p259
ssS'DCS_Website_settings'
p260
(dp261
g29
(dp262
S'html_filename'
p263
S'DCS_Website_settings.html'
p264
sS'name'
p265
S'DCS_Website\\settings'
p266
sS'nums'
p267
g13
(g14
g15
NtRp268
(dp269
g18
I1
sg19
I0
sg20
I21
sg21
I0
sg22
I0
sg23
I0
sg24
I0
sbssg38
S'd=\xef\xa2C\xe0\x97\x8d\xe4\x15\xc0.\x98\xec#\x97'
p270
ssS'DCS_Website_urls'
p271
(dp272
g6
(dp273
g263
S'DCS_Website_urls.html'
p274
sg265
S'DCS_Website\\urls'
p275
sg267
g13
(g14
g15
NtRp276
(dp277
g18
I1
sg19
I0
sg20
I8
sg21
I0
sg22
I0
sg23
I0
sg24
I0
sbssg25
S'\x14#\xcd\xe7Tkx\x03\x15R*\xbf\xc6@\x9f\x84'
p278
ssS'news_urls'
p279
(dp280
g6
(dp281
g8
S'news_urls.html'
p282
sg10
S'news\\urls'
p283
sg12
g13
(g14
g15
NtRp284
(dp285
g18
I1
sg19
I0
sg20
I3
sg21
I0
sg22
I0
sg23
I0
sg24
I0
sbssg25
S'/\x9bR\xf3O@\x03sG\xa9\xd6\xd3\x13\\`\x8d'
p286
ssS'people_tests___init__'
p287
(dp288
g29
(dp289
g31
S'people_tests___init__.html'
p290
sg33
S'people\\tests\\__init__'
p291
sg35
g13
(g14
g15
NtRp292
(dp293
g18
I1
sg19
I0
sg20
I0
sg21
I0
sg22
I0
sg23
I0
sg24
I0
sbssg38
S'\xb0\xc8pN\xaf>\xa0\xbaz\x144\xe0A9\xb8?'
p294
ssS'news_models'
p295
(dp296
g29
(dp297
g63
S'news_models.html'
p298
sg65
S'news\\models'
p299
sg67
g13
(g14
g15
NtRp300
(dp301
g18
I1
sg19
I0
sg20
I7
sg21
I0
sg22
I0
sg23
I0
sg24
I0
sbssg38
S'\xc4\xa0\xc4\x17\xb9\x0e!/t\xf97\x12f\xbf2\x19'
p302
ssS'DCS_Website_views'
p303
(dp304
g6
(dp305
g263
S'DCS_Website_views.html'
p306
sg265
S'DCS_Website\\views'
p307
sg267
g13
(g14
g15
NtRp308
(dp309
g18
I1
sg19
I0
sg20
I54
sg21
I0
sg22
I0
sg23
I0
sg24
I0
sbssg25
S'\x8088{\x99\xe56O"\x7fN\xbd\xd8\xa2\xaf!'
p310
ssS'events_admin'
p311
(dp312
g6
(dp313
g8
S'events_admin.html'
p314
sg10
S'events\\admin'
p315
sg12
g13
(g14
g15
NtRp316
(dp317
g18
I1
sg19
I0
sg20
I7
sg21
I0
sg22
I0
sg23
I0
sg24
I0
sbssg25
S'Z^\x93\xd0;j-Byy\xb8\xe9\xcc\x9c\xca\xb2'
p318
ssS'people_views'
p319
(dp320
g6
(dp321
g140
S'people_views.html'
p322
sg142
S'people\\views'
p323
sg144
g13
(g14
g15
NtRp324
(dp325
g18
I1
sg19
I0
sg20
I11
sg21
I0
sg22
I0
sg23
I0
sg24
I0
sbssg25
S'1\x8c\x90\xab\x92\x00\xbb\xed\xe2~\xb3r\xe9\x00P\x89'
p326
ssS'announcements___init__'
p327
(dp328
g29
(dp329
g31
S'announcements___init__.html'
p330
sg33
S'announcements\\__init__'
p331
sg35
g13
(g14
g15
NtRp332
(dp333
g18
I1
sg19
I0
sg20
I0
sg21
I0
sg22
I0
sg23
I0
sg24
I0
sbssg38
S'\xb0\xc8pN\xaf>\xa0\xbaz\x144\xe0A9\xb8?'
p334
ssS'events_tests_tests_event_models'
p335
(dp336
g29
(dp337
g51
S'events_tests_tests_event_models.html'
p338
sg53
S'events\\tests\\tests_event_models'
p339
sg55
g13
(g14
g15
NtRp340
(dp341
g18
I1
sg19
I0
sg20
I11
sg21
I0
sg22
I0
sg23
I0
sg24
I0
sbssg38
S'\x1f\xb5\xd3B;\xe1\xe5\xd5\xe6\xcfWq\x8b\x1eW\xd5'
p342
ssS'images_admin'
p343
(dp344
g6
(dp345
g8
S'images_admin.html'
p346
sg10
S'images\\admin'
p347
sg12
g13
(g14
g15
NtRp348
(dp349
g18
I1
sg19
I0
sg20
I7
sg21
I0
sg22
I0
sg23
I0
sg24
I0
sbssg25
S'\x85x\xb3\x83d\x16\xadg`\x08\xac\x00\xbf\xdb=\xdf'
p350
ssS'events_urls'
p351
(dp352
g6
(dp353
g8
S'events_urls.html'
p354
sg10
S'events\\urls'
p355
sg12
g13
(g14
g15
NtRp356
(dp357
g18
I1
sg19
I0
sg20
I3
sg21
I0
sg22
I0
sg23
I0
sg24
I0
sbssg25
S'23L\x1c\xe4\xf9\xe0\x07n$\x9ce\xaa\r\xf1\xe2'
p358
ssS'people_tests_test_models'
p359
(dp360
g29
(dp361
g140
S'people_tests_test_models.html'
p362
sg142
S'people\\tests\\test_models'
p363
sg144
g13
(g14
g15
NtRp364
(dp365
g18
I1
sg19
I0
sg20
I33
sg21
I0
sg22
I0
sg23
I0
sg24
I0
sbssg38
S'\xbf\xc9\x16KC\xf0=\xe2\x15\x1fg\n\xc3\xc4\xa2['
p366
sssS'version'
p367
S'3.6'
p368
sS'settings'
p369
S'3\xcf\xa1\x19.\x88o$\x8cA\xde\xbd\xcd\x06\xa1\x0f'
p370
sS'format'
p371
I1
s.